; Function Attrs: nounwind uwtable
define range(i32 -1, 1) i32 @H5C_pin_protected_entry(ptr noundef captures(none) %0) local_unnamed_addr #0 {
  %2 = load i8, ptr @H5C_init_g, align 1, !tbaa !3, !range !7, !noundef !8
  %3 = trunc nuw i8 %2 to i1
  %4 = load i8, ptr @H5_libterm_g, align 1, !range !7
  %5 = trunc nuw i8 %4 to i1
  %6 = select i1 %3, i1 true, i1 %5
  br i1 %6, label %7, label %.thread, !prof !9

.thread:                                          ; preds = %1
  store i8 1, ptr @H5C_init_g, align 1, !tbaa !3
  br label %10

7:                                                ; preds = %1
  %8 = xor i1 %5, true
  %9 = select i1 %3, i1 true, i1 %8
  br i1 %9, label %10, label %35, !prof !150

10:                                               ; preds = %.thread, %7
  %11 = getelementptr inbounds nuw i8, ptr %0, i64 50
  %12 = load i8, ptr %11, align 2, !tbaa !58, !range !7, !noundef !8
  %13 = trunc nuw i8 %12 to i1
  br i1 %13, label %18, label %14

14:                                               ; preds = %10
  %15 = load i64, ptr @H5E_CACHE_g, align 8, !tbaa !59
  %16 = load i64, ptr @H5E_CANTPIN_g, align 8, !tbaa !59
  %17 = tail call i32 (ptr, ptr, i32, i64, i64, ptr, ...) @H5E_printf_stack(ptr noundef nonnull @.str, ptr noundef nonnull @__func__.H5C_pin_protected_entry, i32 noundef 2911, i64 noundef %15, i64 noundef %16, ptr noundef nonnull @.str.41) #9
  br label %35

18:                                               ; preds = %10
  %19 = getelementptr inbounds nuw i8, ptr %0, i64 56
  %20 = load i8, ptr %19, align 8, !tbaa !102, !range !7, !noundef !8
  %21 = trunc nuw i8 %20 to i1
  br i1 %21, label %22, label %26

22:                                               ; preds = %18
  %23 = getelementptr inbounds nuw i8, ptr %0, i64 100
  %24 = load i8, ptr %23, align 4, !tbaa !131, !range !7, !noundef !8
  %25 = trunc nuw i8 %24 to i1
  br i1 %25, label %28, label %H5C__pin_entry_from_client.exit

26:                                               ; preds = %18
  store i8 1, ptr %19, align 8, !tbaa !102
  br label %H5C__pin_entry_from_client.exit

H5C__pin_entry_from_client.exit:                  ; preds = %22, %26
  %27 = getelementptr inbounds nuw i8, ptr %0, i64 100
  store i8 1, ptr %27, align 4, !tbaa !131
  br label %35

28:                                               ; preds = %22
  %29 = load i64, ptr @H5E_CACHE_g, align 8, !tbaa !59
  %30 = load i64, ptr @H5E_CANTPIN_g, align 8, !tbaa !59
  %31 = tail call i32 (ptr, ptr, i32, i64, i64, ptr, ...) @H5E_printf_stack(ptr noundef nonnull @.str, ptr noundef nonnull @__func__.H5C__pin_entry_from_client, i32 noundef 130, i64 noundef %29, i64 noundef %30, ptr noundef nonnull @.str.83) #9
  %32 = load i64, ptr @H5E_CACHE_g, align 8, !tbaa !59
  %33 = load i64, ptr @H5E_CANTPIN_g, align 8, !tbaa !59
  %34 = tail call i32 (ptr, ptr, i32, i64, i64, ptr, ...) @H5E_printf_stack(ptr noundef nonnull @.str, ptr noundef nonnull @__func__.H5C_pin_protected_entry, i32 noundef 2915, i64 noundef %32, i64 noundef %33, ptr noundef nonnull @.str.42) #9
  br label %35

35:                                               ; preds = %H5C__pin_entry_from_client.exit, %14, %28, %7
  %.0 = phi i32 [ -1, %28 ], [ 0, %H5C__pin_entry_from_client.exit ], [ -1, %14 ], [ 0, %7 ]
  ret i32 %.0
}